; Function Attrs: mustprogress nofree norecurse nosync nounwind willreturn memory(read, argmem: readwrite, inaccessiblemem: none) uwtable
define noundef zeroext i1 @_ZN5draco22AdaptiveRAnsBitDecoder13DecodeNextBitEv(ptr noundef nonnull align 8 captures(none) dereferenceable(24) %0) local_unnamed_addr #4 align 2 {
  %2 = getelementptr inbounds nuw i8, ptr %0, i64 16
  %3 = load double, ptr %2, align 8
  %4 = getelementptr inbounds nuw i8, ptr %0, i64 12
  %5 = load i32, ptr %4, align 4
  %6 = icmp ult i32 %5, 4096
  br i1 %6, label %7, label %_ZN5dracoL14rabs_desc_readEPNS_10AnsDecoderEh.exit

7:                                                ; preds = %1
  %8 = getelementptr inbounds nuw i8, ptr %0, i64 8
  %9 = load i32, ptr %8, align 8
  %10 = icmp sgt i32 %9, 0
  br i1 %10, label %11, label %_ZN5dracoL14rabs_desc_readEPNS_10AnsDecoderEh.exit

11:                                               ; preds = %7
  %12 = shl nuw nsw i32 %5, 8
  %13 = load ptr, ptr %0, align 8
  %14 = add nsw i32 %9, -1
  store i32 %14, ptr %8, align 8
  %15 = zext nneg i32 %14 to i64
  %16 = getelementptr inbounds nuw i8, ptr %13, i64 %15
  %17 = load i8, ptr %16, align 1
  %18 = zext i8 %17 to i32
  %19 = or disjoint i32 %12, %18
  br label %_ZN5dracoL14rabs_desc_readEPNS_10AnsDecoderEh.exit

_ZN5dracoL14rabs_desc_readEPNS_10AnsDecoderEh.exit: ; preds = %1, %7, %11
  %20 = phi i32 [ %19, %11 ], [ %5, %7 ], [ %5, %1 ]
  %21 = tail call double @llvm.fmuladd.f64(double %3, double 2.560000e+02, double 5.000000e-01)
  %22 = fptoui double %21 to i32
  %23 = icmp eq i32 %22, 256
  %24 = tail call i32 @llvm.umax.i32(i32 %22, i32 1)
  %25 = select i1 %23, i32 255, i32 %24
  %26 = sub i32 0, %25
  %27 = lshr i32 %20, 8
  %28 = and i32 %20, 255
  %29 = and i32 %26, 255
  %30 = mul nuw i32 %27, %29
  %31 = icmp samesign ult i32 %28, %29
  %32 = add nuw i32 %29, %30
  %33 = sub i32 %20, %32
  %34 = add nuw i32 %30, %28
  %storemerge.i = select i1 %31, i32 %34, i32 %33
  store i32 %storemerge.i, ptr %4, align 4
  %35 = xor i1 %31, true
  %36 = uitofp i1 %35 to double
  %37 = fmul double %36, 7.812500e-03
  %38 = tail call noundef double @llvm.fmuladd.f64(double %3, double 0x3FEFC00000000000, double %37)
  store double %38, ptr %2, align 8
  ret i1 %31
}